; Function Attrs: mustprogress uwtable
define hidden noundef ptr @_ZN7specrel6solver5cloneERN3euf6solverE(ptr noundef nonnull readonly align 8 captures(none) dereferenceable(128) %0, ptr noundef nonnull align 8 dereferenceable(8456) %1) unnamed_addr #3 align 2 personality ptr @__gxx_personality_v0 {
  %3 = tail call noalias noundef ptr @_ZN6memory8allocateEm(i64 noundef 128)
  %4 = getelementptr inbounds nuw i8, ptr %0, i64 12
  %5 = load i32, ptr %4, align 4, !tbaa !396
  %6 = icmp sgt i32 %5, -1
  br i1 %6, label %7, label %_ZNK11ast_manager15get_family_nameEi.exit.i

7:                                                ; preds = %2
  %8 = getelementptr inbounds nuw i8, ptr %1, i64 136
  %9 = load ptr, ptr %8, align 8, !tbaa !3
  %10 = getelementptr inbounds nuw i8, ptr %9, i64 608
  %11 = load ptr, ptr %10, align 8, !tbaa !384
  %12 = icmp eq ptr %11, null
  br i1 %12, label %_ZNK11ast_manager15get_family_nameEi.exit.i, label %_ZNK6vectorI6symbolLb0EjE4sizeEv.exit.i.i.i

_ZNK6vectorI6symbolLb0EjE4sizeEv.exit.i.i.i:      ; preds = %7
  %13 = getelementptr inbounds i8, ptr %11, i64 -4
  %14 = load i32, ptr %13, align 4, !tbaa !387
  %15 = icmp slt i32 %5, %14
  br i1 %15, label %16, label %_ZNK11ast_manager15get_family_nameEi.exit.i

16:                                               ; preds = %_ZNK6vectorI6symbolLb0EjE4sizeEv.exit.i.i.i
  %17 = zext nneg i32 %5 to i64
  %18 = getelementptr inbounds nuw %class.symbol, ptr %11, i64 %17
  br label %_ZNK11ast_manager15get_family_nameEi.exit.i

_ZNK11ast_manager15get_family_nameEi.exit.i:      ; preds = %16, %_ZNK6vectorI6symbolLb0EjE4sizeEv.exit.i.i.i, %7, %2
  %19 = phi ptr [ %18, %16 ], [ @_ZN6symbol4nullE, %_ZNK6vectorI6symbolLb0EjE4sizeEv.exit.i.i.i ], [ @_ZN6symbol4nullE, %2 ], [ @_ZN6symbol4nullE, %7 ]
  tail call void @_ZN3euf13th_euf_solverC2ERNS_6solverERK6symboli(ptr noundef nonnull align 8 dereferenceable(128) %3, ptr noundef nonnull align 8 dereferenceable(8456) %1, ptr noundef nonnull align 8 dereferenceable(8) %19, i32 noundef %5)
  store ptr getelementptr inbounds nuw inrange(-16, 608) (i8, ptr @_ZTVN7specrel6solverE, i64 16), ptr %3, align 8, !tbaa !388
  %20 = getelementptr inbounds nuw i8, ptr %3, i64 32
  store ptr getelementptr inbounds nuw inrange(-16, 64) (i8, ptr @_ZTVN7specrel6solverE, i64 640), ptr %20, align 8, !tbaa !388
  %21 = getelementptr inbounds nuw i8, ptr %3, i64 40
  store ptr getelementptr inbounds nuw inrange(-16, 24) (i8, ptr @_ZTVN7specrel6solverE, i64 720), ptr %21, align 8, !tbaa !388
  %22 = getelementptr inbounds nuw i8, ptr %3, i64 48
  store ptr getelementptr inbounds nuw inrange(-16, 72) (i8, ptr @_ZTVN7specrel6solverE, i64 760), ptr %22, align 8, !tbaa !388
  %23 = getelementptr inbounds nuw i8, ptr %3, i64 112
  %24 = getelementptr inbounds nuw i8, ptr %3, i64 72
  %25 = load ptr, ptr %24, align 8, !tbaa !390
  store ptr %25, ptr %23, align 8, !tbaa !393
  %26 = getelementptr inbounds nuw i8, ptr %3, i64 120
  store i32 -1, ptr %26, align 8, !tbaa !394
  %27 = getelementptr inbounds nuw i8, ptr %1, i64 1632
  %28 = invoke noalias noundef ptr @_ZN6memory8allocateEm(i64 noundef 72)
          to label %29 unwind label %31

29:                                               ; preds = %_ZNK11ast_manager15get_family_nameEi.exit.i
  invoke void @_ZN3euf14specrel_pluginC1ERNS_6egraphE(ptr noundef nonnull align 8 dereferenceable(72) %28, ptr noundef nonnull align 8 dereferenceable(536) %27)
          to label %30 unwind label %31

30:                                               ; preds = %29
  invoke void @_ZN3euf6egraph10add_pluginEPNS_6pluginE(ptr noundef nonnull align 8 dereferenceable(536) %27, ptr noundef nonnull %28)
          to label %_ZN7specrel6solverC2ERN3euf6solverEi.exit unwind label %31

31:                                               ; preds = %30, %29, %_ZNK11ast_manager15get_family_nameEi.exit.i
  %32 = landingpad { ptr, i32 }
          cleanup
  tail call void @_ZN3euf13th_euf_solverD2Ev(ptr noundef nonnull align 8 dereferenceable(128) %3) #20
  resume { ptr, i32 } %32

_ZN7specrel6solverC2ERN3euf6solverEi.exit:        ; preds = %30
  ret ptr %3
}